target datalayout = "e-m:e-p270:32:32-p271:32:32-p272:64:64-i64:64-i128:128-f80:128-n8:16:32:64-S128"
target triple = "x86_64-unknown-linux-gnu"

%"class.std::vector.3" = type { %"struct.std::_Vector_base.4" }
%"struct.std::_Vector_base.4" = type { %"struct.std::_Vector_base<std::shared_ptr<const facebook::velox::core::PlanNode>, std::allocator<std::shared_ptr<const facebook::velox::core::PlanNode>>>::_Vector_impl" }
%"struct.std::_Vector_base<std::shared_ptr<const facebook::velox::core::PlanNode>, std::allocator<std::shared_ptr<const facebook::velox::core::PlanNode>>>::_Vector_impl" = type { %"struct.std::_Vector_base<std::shared_ptr<const facebook::velox::core::PlanNode>, std::allocator<std::shared_ptr<const facebook::velox::core::PlanNode>>>::_Vector_impl_data" }
%"struct.std::_Vector_base<std::shared_ptr<const facebook::velox::core::PlanNode>, std::allocator<std::shared_ptr<const facebook::velox::core::PlanNode>>>::_Vector_impl_data" = type { ptr, ptr, ptr }
%"class.std::__cxx11::basic_string" = type { %"struct.std::__cxx11::basic_string<char>::_Alloc_hider", i64, %union.anon }
%"struct.std::__cxx11::basic_string<char>::_Alloc_hider" = type { ptr }
%union.anon = type { i64, [8 x i8] }
%"class.facebook::velox::core::PlanNode" = type { %"class.facebook::velox::ISerializable", %"class.std::__cxx11::basic_string" }
%"class.facebook::velox::ISerializable" = type { ptr }
%"class.facebook::velox::core::LimitNode" = type { %"class.facebook::velox::core::PlanNode", i64, i64, i8, %"class.std::vector.3" }

@.str.118 = private unnamed_addr constant [9 x i8] c"PARTIAL \00", align 1
@.str.121 = private unnamed_addr constant [9 x i8] c" offset \00", align 1

; Function Attrs: mustprogress uwtable
define void @_ZNK8facebook5velox4core9LimitNode10addDetailsERNSt7__cxx1118basic_stringstreamIcSt11char_traitsIcESaIcEEE(ptr noundef nonnull align 8 dereferenceable(88) %this, ptr noundef nonnull align 8 dereferenceable(128) %stream) unnamed_addr #2 align 2 {
entry:
  %this.addr = alloca ptr, align 8
  %stream.addr = alloca ptr, align 8
  store ptr %this, ptr %this.addr, align 8
  store ptr %stream, ptr %stream.addr, align 8
  %this1 = load ptr, ptr %this.addr, align 8
  %isPartial_ = getelementptr inbounds %"class.facebook::velox::core::LimitNode", ptr %this1, i32 0, i32 3
  %0 = load i8, ptr %isPartial_, align 8
  %tobool = trunc i8 %0 to i1
  br i1 %tobool, label %if.then, label %if.end

if.then:                                          ; preds = %entry
  %1 = load ptr, ptr %stream.addr, align 8
  %add.ptr = getelementptr inbounds i8, ptr %1, i64 16
  %call = call noundef nonnull align 8 dereferenceable(8) ptr @_ZStlsISt11char_traitsIcEERSt13basic_ostreamIcT_ES5_PKc(ptr noundef nonnull align 8 dereferenceable(8) %add.ptr, ptr noundef @.str.118)
  br label %if.end

if.end:                                           ; preds = %if.then, %entry
  %2 = load ptr, ptr %stream.addr, align 8
  %add.ptr2 = getelementptr inbounds i8, ptr %2, i64 16
  %count_ = getelementptr inbounds %"class.facebook::velox::core::LimitNode", ptr %this1, i32 0, i32 2
  %3 = load i64, ptr %count_, align 8
  %call3 = call noundef nonnull align 8 dereferenceable(8) ptr @_ZNSolsEl(ptr noundef nonnull align 8 dereferenceable(8) %add.ptr2, i64 noundef %3)
  %offset_ = getelementptr inbounds %"class.facebook::velox::core::LimitNode", ptr %this1, i32 0, i32 1
  %4 = load i64, ptr %offset_, align 8
  %tobool4 = icmp ne i64 %4, 0
  br i1 %tobool4, label %if.then5, label %if.end10

if.then5:                                         ; preds = %if.end
  %5 = load ptr, ptr %stream.addr, align 8
  %add.ptr6 = getelementptr inbounds i8, ptr %5, i64 16
  %call7 = call noundef nonnull align 8 dereferenceable(8) ptr @_ZStlsISt11char_traitsIcEERSt13basic_ostreamIcT_ES5_PKc(ptr noundef nonnull align 8 dereferenceable(8) %add.ptr6, ptr noundef @.str.121)
  %offset_8 = getelementptr inbounds %"class.facebook::velox::core::LimitNode", ptr %this1, i32 0, i32 1
  %6 = load i64, ptr %offset_8, align 8
  %call9 = call noundef nonnull align 8 dereferenceable(8) ptr @_ZNSolsEl(ptr noundef nonnull align 8 dereferenceable(8) %call7, i64 noundef %6)
  br label %if.end10

if.end10:                                         ; preds = %if.then5, %if.end
  ret void
}