; Function Attrs: mustprogress uwtable
define void @_ZNK8facebook5velox4core9LimitNode10addDetailsERNSt7__cxx1118basic_stringstreamIcSt11char_traitsIcESaIcEEE(ptr nocapture noundef nonnull readonly align 8 dereferenceable(88) %this, ptr noundef nonnull align 8 dereferenceable(128) %stream) unnamed_addr #0 align 2 {
entry:
  %isPartial_ = getelementptr inbounds i8, ptr %this, i64 56
  %0 = load i8, ptr %isPartial_, align 8
  %1 = and i8 %0, 1
  %tobool.not = icmp eq i8 %1, 0
  br i1 %tobool.not, label %if.end, label %if.then

if.then:                                          ; preds = %entry
  %add.ptr = getelementptr inbounds i8, ptr %stream, i64 16
  %call = tail call noundef nonnull align 8 dereferenceable(8) ptr @_ZStlsISt11char_traitsIcEERSt13basic_ostreamIcT_ES5_PKc(ptr noundef nonnull align 8 dereferenceable(8) %add.ptr, ptr noundef nonnull @.str.118)
  br label %if.end

if.end:                                           ; preds = %if.then, %entry
  %add.ptr2 = getelementptr inbounds i8, ptr %stream, i64 16
  %count_ = getelementptr inbounds i8, ptr %this, i64 48
  %2 = load i64, ptr %count_, align 8
  %call3 = tail call noundef nonnull align 8 dereferenceable(8) ptr @_ZNSolsEl(ptr noundef nonnull align 8 dereferenceable(8) %add.ptr2, i64 noundef %2)
  %offset_ = getelementptr inbounds i8, ptr %this, i64 40
  %3 = load i64, ptr %offset_, align 8
  %tobool4.not = icmp eq i64 %3, 0
  br i1 %tobool4.not, label %if.end10, label %if.then5

if.then5:                                         ; preds = %if.end
  %call7 = tail call noundef nonnull align 8 dereferenceable(8) ptr @_ZStlsISt11char_traitsIcEERSt13basic_ostreamIcT_ES5_PKc(ptr noundef nonnull align 8 dereferenceable(8) %add.ptr2, ptr noundef nonnull @.str.121)
  %4 = load i64, ptr %offset_, align 8
  %call9 = tail call noundef nonnull align 8 dereferenceable(8) ptr @_ZNSolsEl(ptr noundef nonnull align 8 dereferenceable(8) %call7, i64 noundef %4)
  br label %if.end10

if.end10:                                         ; preds = %if.then5, %if.end
  ret void
}